target datalayout = "e-m:e-p270:32:32-p271:32:32-p272:64:64-i64:64-i128:128-f80:128-n8:16:32:64-S128"
target triple = "x86_64-pc-linux-gnu"

%struct.ctlog_store_load_ctx_st = type { ptr, ptr, i64 }

@.str = private unnamed_addr constant [30 x i8] c"../openssl/crypto/ct/ct_log.c\00", align 1
@__func__.CTLOG_STORE_load_file = private unnamed_addr constant [22 x i8] c"CTLOG_STORE_load_file\00", align 1
@.str.3 = private unnamed_addr constant [13 x i8] c"enabled_logs\00", align 1

; Function Attrs: nounwind uwtable
define internal void @ctlog_store_load_ctx_free(ptr noundef %0) #0 {
  %2 = alloca ptr, align 8
  store ptr %0, ptr %2, align 8, !tbaa !28
  %3 = load ptr, ptr %2, align 8, !tbaa !28
  call void @CRYPTO_free(ptr noundef %3, ptr noundef @.str, i32 noundef 70)
  ret void
}

; Function Attrs: nounwind uwtable
define internal ptr @ctlog_store_load_ctx_new() #0 {
  %1 = alloca ptr, align 8
  call void @llvm.lifetime.start.p0(i64 8, ptr %1) #5
  %2 = call noalias ptr @CRYPTO_zalloc(i64 noundef 24, ptr noundef @.str, i32 noundef 63)
  store ptr %2, ptr %1, align 8, !tbaa !28
  %3 = load ptr, ptr %1, align 8, !tbaa !28
  call void @llvm.lifetime.end.p0(i64 8, ptr %1) #5
  ret ptr %3
}

; Function Attrs: nounwind uwtable
define i32 @CTLOG_STORE_load_file(ptr noundef %0, ptr noundef %1) #0 {
  %3 = alloca i32, align 4
  %4 = alloca ptr, align 8
  %5 = alloca ptr, align 8
  %6 = alloca i32, align 4
  %7 = alloca ptr, align 8
  %8 = alloca ptr, align 8
  %9 = alloca i32, align 4
  store ptr %0, ptr %4, align 8, !tbaa !10
  store ptr %1, ptr %5, align 8, !tbaa !8
  call void @llvm.lifetime.start.p0(i64 4, ptr %6) #5
  store i32 0, ptr %6, align 4, !tbaa !26
  call void @llvm.lifetime.start.p0(i64 8, ptr %7) #5
  call void @llvm.lifetime.start.p0(i64 8, ptr %8) #5
  %10 = call ptr @ctlog_store_load_ctx_new()
  store ptr %10, ptr %8, align 8, !tbaa !28
  %11 = load ptr, ptr %8, align 8, !tbaa !28
  %12 = icmp eq ptr %11, null
  br i1 %12, label %13, label %14

13:                                               ; preds = %2
  store i32 0, ptr %3, align 4
  store i32 1, ptr %9, align 4
  br label %60

14:                                               ; preds = %2
  %15 = load ptr, ptr %4, align 8, !tbaa !10
  %16 = load ptr, ptr %8, align 8, !tbaa !28
  %17 = getelementptr inbounds nuw %struct.ctlog_store_load_ctx_st, ptr %16, i32 0, i32 0
  store ptr %15, ptr %17, align 8, !tbaa !30
  %18 = call ptr @NCONF_new(ptr noundef null)
  %19 = load ptr, ptr %8, align 8, !tbaa !28
  %20 = getelementptr inbounds nuw %struct.ctlog_store_load_ctx_st, ptr %19, i32 0, i32 1
  store ptr %18, ptr %20, align 8, !tbaa !34
  %21 = load ptr, ptr %8, align 8, !tbaa !28
  %22 = getelementptr inbounds nuw %struct.ctlog_store_load_ctx_st, ptr %21, i32 0, i32 1
  %23 = load ptr, ptr %22, align 8, !tbaa !34
  %24 = icmp eq ptr %23, null
  br i1 %24, label %25, label %26

25:                                               ; preds = %14
  br label %54

26:                                               ; preds = %14
  %27 = load ptr, ptr %8, align 8, !tbaa !28
  %28 = getelementptr inbounds nuw %struct.ctlog_store_load_ctx_st, ptr %27, i32 0, i32 1
  %29 = load ptr, ptr %28, align 8, !tbaa !34
  %30 = load ptr, ptr %5, align 8, !tbaa !8
  %31 = call i32 @NCONF_load(ptr noundef %29, ptr noundef %30, ptr noundef null)
  %32 = icmp sle i32 %31, 0
  br i1 %32, label %33, label %34

33:                                               ; preds = %26
  call void @ERR_new()
  call void @ERR_set_debug(ptr noundef @.str, i32 noundef 229, ptr noundef @__func__.CTLOG_STORE_load_file)
  call void (i32, i32, ptr, ...) @ERR_set_error(i32 noundef 50, i32 noundef 109, ptr noundef null)
  br label %54

34:                                               ; preds = %26
  %35 = load ptr, ptr %8, align 8, !tbaa !28
  %36 = getelementptr inbounds nuw %struct.ctlog_store_load_ctx_st, ptr %35, i32 0, i32 1
  %37 = load ptr, ptr %36, align 8, !tbaa !34
  %38 = call ptr @NCONF_get_string(ptr noundef %37, ptr noundef null, ptr noundef @.str.3)
  store ptr %38, ptr %7, align 8, !tbaa !8
  %39 = load ptr, ptr %7, align 8, !tbaa !8
  %40 = icmp eq ptr %39, null
  br i1 %40, label %41, label %42

41:                                               ; preds = %34
  call void @ERR_new()
  call void @ERR_set_debug(ptr noundef @.str, i32 noundef 235, ptr noundef @__func__.CTLOG_STORE_load_file)
  call void (i32, i32, ptr, ...) @ERR_set_error(i32 noundef 50, i32 noundef 109, ptr noundef null)
  br label %54

42:                                               ; preds = %34
  %43 = load ptr, ptr %7, align 8, !tbaa !8
  %44 = load ptr, ptr %8, align 8, !tbaa !28
  %45 = call i32 @CONF_parse_list(ptr noundef %43, i32 noundef 44, i32 noundef 1, ptr noundef @ctlog_store_load_log, ptr noundef %44)
  %46 = icmp ne i32 %45, 0
  br i1 %46, label %47, label %52

47:                                               ; preds = %42
  %48 = load ptr, ptr %8, align 8, !tbaa !28
  %49 = getelementptr inbounds nuw %struct.ctlog_store_load_ctx_st, ptr %48, i32 0, i32 2
  %50 = load i64, ptr %49, align 8, !tbaa !35
  %51 = icmp ugt i64 %50, 0
  br i1 %51, label %52, label %53

52:                                               ; preds = %47, %42
  call void @ERR_new()
  call void @ERR_set_debug(ptr noundef @.str, i32 noundef 241, ptr noundef @__func__.CTLOG_STORE_load_file)
  call void (i32, i32, ptr, ...) @ERR_set_error(i32 noundef 50, i32 noundef 109, ptr noundef null)
  br label %54

53:                                               ; preds = %47
  store i32 1, ptr %6, align 4, !tbaa !26
  br label %54

54:                                               ; preds = %53, %52, %41, %33, %25
  %55 = load ptr, ptr %8, align 8, !tbaa !28
  %56 = getelementptr inbounds nuw %struct.ctlog_store_load_ctx_st, ptr %55, i32 0, i32 1
  %57 = load ptr, ptr %56, align 8, !tbaa !34
  call void @NCONF_free(ptr noundef %57)
  %58 = load ptr, ptr %8, align 8, !tbaa !28
  call void @ctlog_store_load_ctx_free(ptr noundef %58)
  %59 = load i32, ptr %6, align 4, !tbaa !26
  store i32 %59, ptr %3, align 4
  store i32 1, ptr %9, align 4
  br label %60

60:                                               ; preds = %54, %13
  call void @llvm.lifetime.end.p0(i64 8, ptr %8) #5
  call void @llvm.lifetime.end.p0(i64 8, ptr %7) #5
  call void @llvm.lifetime.end.p0(i64 4, ptr %6) #5
  %61 = load i32, ptr %3, align 4
  ret i32 %61
}