; Function Attrs: nounwind uwtable
define range(i32 0, 2) i32 @CTLOG_STORE_load_file(ptr noundef %0, ptr noundef %1) local_unnamed_addr #0 {
  %3 = tail call noalias ptr @CRYPTO_zalloc(i64 noundef 24, ptr noundef nonnull @.str, i32 noundef 63) #6
  %4 = icmp eq ptr %3, null
  br i1 %4, label %23, label %5

5:                                                ; preds = %2
  store ptr %0, ptr %3, align 8, !tbaa !18
  %6 = tail call ptr @NCONF_new(ptr noundef null) #6
  %7 = getelementptr inbounds nuw i8, ptr %3, i64 8
  store ptr %6, ptr %7, align 8, !tbaa !23
  %8 = icmp eq ptr %6, null
  br i1 %8, label %21, label %9

9:                                                ; preds = %5
  %10 = tail call i32 @NCONF_load(ptr noundef nonnull %6, ptr noundef %1, ptr noundef null) #6
  %11 = icmp slt i32 %10, 1
  br i1 %11, label %.sink.split, label %12

12:                                               ; preds = %9
  %13 = load ptr, ptr %7, align 8, !tbaa !23
  %14 = tail call ptr @NCONF_get_string(ptr noundef %13, ptr noundef null, ptr noundef nonnull @.str.3) #6
  %15 = icmp eq ptr %14, null
  br i1 %15, label %.sink.split, label %16

16:                                               ; preds = %12
  %17 = tail call i32 @CONF_parse_list(ptr noundef nonnull %14, i32 noundef 44, i32 noundef 1, ptr noundef nonnull @ctlog_store_load_log, ptr noundef nonnull %3) #6
  %.not = icmp eq i32 %17, 0
  br i1 %.not, label %.sink.split, label %18

18:                                               ; preds = %16
  %19 = getelementptr inbounds nuw i8, ptr %3, i64 16
  %20 = load i64, ptr %19, align 8, !tbaa !24
  %.not19 = icmp eq i64 %20, 0
  br i1 %.not19, label %21, label %.sink.split

.sink.split:                                      ; preds = %16, %18, %12, %9
  %.sink = phi i32 [ 229, %9 ], [ 235, %12 ], [ 241, %18 ], [ 241, %16 ]
  tail call void @ERR_new() #6
  tail call void @ERR_set_debug(ptr noundef nonnull @.str, i32 noundef %.sink, ptr noundef nonnull @__func__.CTLOG_STORE_load_file) #6
  tail call void (i32, i32, ptr, ...) @ERR_set_error(i32 noundef 50, i32 noundef 109, ptr noundef null) #6
  br label %21

21:                                               ; preds = %.sink.split, %18, %5
  %.015 = phi i32 [ 0, %5 ], [ 1, %18 ], [ 0, %.sink.split ]
  %22 = load ptr, ptr %7, align 8, !tbaa !23
  tail call void @NCONF_free(ptr noundef %22) #6
  tail call void @CRYPTO_free(ptr noundef nonnull %3, ptr noundef nonnull @.str, i32 noundef 70) #6
  br label %23

23:                                               ; preds = %2, %21
  %.0 = phi i32 [ %.015, %21 ], [ 0, %2 ]
  ret i32 %.0
}